target datalayout = "e-m:e-p270:32:32-p271:32:32-p272:64:64-i64:64-i128:128-f80:128-n8:16:32:64-S128"
target triple = "x86_64-pc-linux-gnu"

%struct.PQExpBufferData = type { ptr, i64, i64 }

@stderr = external global ptr, align 8
@.str.7 = private unnamed_addr constant [59 x i8] c"database name contains a newline or carriage return: \22%s\22\0A\00", align 1
@.str.8 = private unnamed_addr constant [21 x i8] c"\\encoding SQL_ASCII\0A\00", align 1
@.str.9 = private unnamed_addr constant [29 x i8] c"\\connect -reuse-previous=on \00", align 1
@.str.10 = private unnamed_addr constant [8 x i8] c"dbname=\00", align 1
@.str.11 = private unnamed_addr constant [10 x i8] c"\\connect \00", align 1

; Function Attrs: nounwind uwtable
define dso_local void @appendPsqlMetaConnect(ptr noundef %0, ptr noundef %1) #0 {
  %3 = alloca ptr, align 8
  %4 = alloca ptr, align 8
  %5 = alloca ptr, align 8
  %6 = alloca i8, align 1
  %7 = alloca %struct.PQExpBufferData, align 8
  store ptr %0, ptr %3, align 8
  store ptr %1, ptr %4, align 8
  call void @llvm.lifetime.start.p0(i64 8, ptr %5) #8
  call void @llvm.lifetime.start.p0(i64 1, ptr %6) #8
  store i8 0, ptr %6, align 1
  %8 = load ptr, ptr %4, align 8
  store ptr %8, ptr %5, align 8
  br label %9

9:                                                ; preds = %69, %2
  %10 = load ptr, ptr %5, align 8
  %11 = load i8, ptr %10, align 1
  %12 = icmp ne i8 %11, 0
  br i1 %12, label %13, label %72

13:                                               ; preds = %9
  %14 = load ptr, ptr %5, align 8
  %15 = load i8, ptr %14, align 1
  %16 = sext i8 %15 to i32
  %17 = icmp eq i32 %16, 10
  br i1 %17, label %23, label %18

18:                                               ; preds = %13
  %19 = load ptr, ptr %5, align 8
  %20 = load i8, ptr %19, align 1
  %21 = sext i8 %20 to i32
  %22 = icmp eq i32 %21, 13
  br i1 %22, label %23, label %27

23:                                               ; preds = %18, %13
  %24 = load ptr, ptr @stderr, align 8
  %25 = load ptr, ptr %4, align 8
  %26 = call i32 (ptr, ptr, ...) @pg_fprintf(ptr noundef %24, ptr noundef @.str.7, ptr noundef %25)
  call void @exit(i32 noundef 1) #10
  unreachable

27:                                               ; preds = %18
  %28 = load ptr, ptr %5, align 8
  %29 = load i8, ptr %28, align 1
  %30 = sext i8 %29 to i32
  %31 = icmp sge i32 %30, 97
  br i1 %31, label %32, label %37

32:                                               ; preds = %27
  %33 = load ptr, ptr %5, align 8
  %34 = load i8, ptr %33, align 1
  %35 = sext i8 %34 to i32
  %36 = icmp sle i32 %35, 122
  br i1 %36, label %68, label %37

37:                                               ; preds = %32, %27
  %38 = load ptr, ptr %5, align 8
  %39 = load i8, ptr %38, align 1
  %40 = sext i8 %39 to i32
  %41 = icmp sge i32 %40, 65
  br i1 %41, label %42, label %47

42:                                               ; preds = %37
  %43 = load ptr, ptr %5, align 8
  %44 = load i8, ptr %43, align 1
  %45 = sext i8 %44 to i32
  %46 = icmp sle i32 %45, 90
  br i1 %46, label %68, label %47

47:                                               ; preds = %42, %37
  %48 = load ptr, ptr %5, align 8
  %49 = load i8, ptr %48, align 1
  %50 = sext i8 %49 to i32
  %51 = icmp sge i32 %50, 48
  br i1 %51, label %52, label %57

52:                                               ; preds = %47
  %53 = load ptr, ptr %5, align 8
  %54 = load i8, ptr %53, align 1
  %55 = sext i8 %54 to i32
  %56 = icmp sle i32 %55, 57
  br i1 %56, label %68, label %57

57:                                               ; preds = %52, %47
  %58 = load ptr, ptr %5, align 8
  %59 = load i8, ptr %58, align 1
  %60 = sext i8 %59 to i32
  %61 = icmp eq i32 %60, 95
  br i1 %61, label %68, label %62

62:                                               ; preds = %57
  %63 = load ptr, ptr %5, align 8
  %64 = load i8, ptr %63, align 1
  %65 = sext i8 %64 to i32
  %66 = icmp eq i32 %65, 46
  br i1 %66, label %68, label %67

67:                                               ; preds = %62
  store i8 1, ptr %6, align 1
  br label %68

68:                                               ; preds = %67, %62, %57, %52, %42, %32
  br label %69

69:                                               ; preds = %68
  %70 = load ptr, ptr %5, align 8
  %71 = getelementptr inbounds nuw i8, ptr %70, i32 1
  store ptr %71, ptr %5, align 8
  br label %9, !llvm.loop !17

72:                                               ; preds = %9
  %73 = load i8, ptr %6, align 1, !range !6, !noundef !7
  %74 = trunc i8 %73 to i1
  br i1 %74, label %75, label %83

75:                                               ; preds = %72
  call void @llvm.lifetime.start.p0(i64 24, ptr %7) #8
  call void @initPQExpBuffer(ptr noundef %7)
  %76 = load ptr, ptr %3, align 8
  call void @appendPQExpBufferStr(ptr noundef %76, ptr noundef @.str.8)
  %77 = load ptr, ptr %3, align 8
  call void @appendPQExpBufferStr(ptr noundef %77, ptr noundef @.str.9)
  call void @appendPQExpBufferStr(ptr noundef %7, ptr noundef @.str.10)
  %78 = load ptr, ptr %4, align 8
  call void @appendConnStrVal(ptr noundef %7, ptr noundef %78)
  %79 = load ptr, ptr %3, align 8
  %80 = getelementptr inbounds nuw %struct.PQExpBufferData, ptr %7, i32 0, i32 0
  %81 = load ptr, ptr %80, align 8
  %82 = call ptr @fmtIdEnc(ptr noundef %81, i32 noundef 0)
  call void @appendPQExpBufferStr(ptr noundef %79, ptr noundef %82)
  call void @termPQExpBuffer(ptr noundef %7)
  call void @llvm.lifetime.end.p0(i64 24, ptr %7) #8
  br label %88

83:                                               ; preds = %72
  %84 = load ptr, ptr %3, align 8
  call void @appendPQExpBufferStr(ptr noundef %84, ptr noundef @.str.11)
  %85 = load ptr, ptr %3, align 8
  %86 = load ptr, ptr %4, align 8
  %87 = call ptr @fmtIdEnc(ptr noundef %86, i32 noundef 0)
  call void @appendPQExpBufferStr(ptr noundef %85, ptr noundef %87)
  br label %88

88:                                               ; preds = %83, %75
  %89 = load ptr, ptr %3, align 8
  call void @appendPQExpBufferChar(ptr noundef %89, i8 noundef signext 10)
  call void @llvm.lifetime.end.p0(i64 1, ptr %6) #8
  call void @llvm.lifetime.end.p0(i64 8, ptr %5) #8
  ret void
}