; Function Attrs: nounwind uwtable
define dso_local void @appendPsqlMetaConnect(ptr noundef %0, ptr noundef %1) local_unnamed_addr #0 {
  %3 = alloca %struct.PQExpBufferData, align 8
  br label %4

4:                                                ; preds = %15, %2
  %.022 = phi ptr [ %1, %2 ], [ %16, %15 ]
  %.0 = phi i1 [ false, %2 ], [ %.1, %15 ]
  %5 = load i8, ptr %.022, align 1
  switch i8 %5, label %9 [
    i8 0, label %17
    i8 10, label %6
    i8 13, label %6
  ]

6:                                                ; preds = %4, %4
  %7 = load ptr, ptr @stderr, align 8
  %8 = tail call i32 (ptr, ptr, ...) @pg_fprintf(ptr noundef %7, ptr noundef nonnull @.str.7, ptr noundef %1) #11
  tail call void @exit(i32 noundef 1) #13
  unreachable

9:                                                ; preds = %4
  %10 = and i8 %5, -33
  %11 = add i8 %10, -65
  %or.cond30 = icmp ult i8 %11, 26
  %12 = add i8 %5, -48
  %or.cond29 = icmp ult i8 %12, 10
  %or.cond31 = or i1 %or.cond29, %or.cond30
  br i1 %or.cond31, label %15, label %13

13:                                               ; preds = %9
  switch i8 %5, label %14 [
    i8 95, label %15
    i8 46, label %15
  ]

14:                                               ; preds = %13
  br label %15

15:                                               ; preds = %13, %13, %9, %14
  %.1 = phi i1 [ %.0, %13 ], [ true, %14 ], [ %.0, %9 ], [ %.0, %13 ]
  %16 = getelementptr inbounds nuw i8, ptr %.022, i64 1
  br label %4, !llvm.loop !15

17:                                               ; preds = %4
  br i1 %.0, label %18, label %21

18:                                               ; preds = %17
  call void @llvm.lifetime.start.p0(i64 24, ptr nonnull %3) #11
  call void @initPQExpBuffer(ptr noundef nonnull %3) #11
  call void @appendPQExpBufferStr(ptr noundef %0, ptr noundef nonnull @.str.8) #11
  call void @appendPQExpBufferStr(ptr noundef %0, ptr noundef nonnull @.str.9) #11
  call void @appendPQExpBufferStr(ptr noundef nonnull %3, ptr noundef nonnull @.str.10) #11
  call void @appendConnStrVal(ptr noundef nonnull %3, ptr noundef %1)
  %19 = load ptr, ptr %3, align 8
  %20 = call ptr @fmtIdEnc(ptr noundef %19, i32 noundef 0)
  call void @appendPQExpBufferStr(ptr noundef %0, ptr noundef %20) #11
  call void @termPQExpBuffer(ptr noundef nonnull %3) #11
  call void @llvm.lifetime.end.p0(i64 24, ptr nonnull %3) #11
  br label %23

21:                                               ; preds = %17
  tail call void @appendPQExpBufferStr(ptr noundef %0, ptr noundef nonnull @.str.11) #11
  %22 = tail call ptr @fmtIdEnc(ptr noundef %1, i32 noundef 0)
  tail call void @appendPQExpBufferStr(ptr noundef %0, ptr noundef %22) #11
  br label %23

23:                                               ; preds = %21, %18
  call void @appendPQExpBufferChar(ptr noundef %0, i8 noundef signext 10) #11
  ret void
}